target datalayout = "e-m:e-p270:32:32-p271:32:32-p272:64:64-i64:64-i128:128-f80:128-n8:16:32:64-S128"
target triple = "x86_64-pc-linux-gnu"

%struct.PostingItem = type { %struct.BlockIdData, %struct.ItemPointerData }
%struct.BlockIdData = type { i16, i16 }
%struct.ItemPointerData = type { %struct.BlockIdData, i16 }
%struct.PageHeaderData = type { %struct.PageXLogRecPtr, i16, i16, i16, i16, i16, i16, i32, [0 x %struct.ItemIdData] }
%struct.PageXLogRecPtr = type { i32, i32 }
%struct.ItemIdData = type { i32 }
%struct.GinPageOpaqueData = type { i32, i16, i16 }

; Function Attrs: inlinehint nounwind uwtable
define internal void @PageValidateSpecialPointer(ptr noundef %0) #2 {
  %2 = alloca ptr, align 8
  store ptr %0, ptr %2, align 8
  ret void
}

; Function Attrs: nounwind uwtable
define dso_local void @GinDataPageAddPostingItem(ptr noundef %0, ptr noundef %1, i16 noundef zeroext %2) #0 {
  %4 = alloca ptr, align 8
  %5 = alloca ptr, align 8
  %6 = alloca i16, align 2
  %7 = alloca i16, align 2
  %8 = alloca ptr, align 8
  store ptr %0, ptr %4, align 8
  store ptr %1, ptr %5, align 8
  store i16 %2, ptr %6, align 2
  call void @llvm.lifetime.start.p0(i64 2, ptr %7) #7
  %9 = load ptr, ptr %4, align 8
  call void @PageValidateSpecialPointer(ptr noundef %9)
  %10 = load ptr, ptr %4, align 8
  %11 = load ptr, ptr %4, align 8
  %12 = getelementptr inbounds nuw %struct.PageHeaderData, ptr %11, i32 0, i32 5
  %13 = load i16, ptr %12, align 4
  %14 = zext i16 %13 to i32
  %15 = sext i32 %14 to i64
  %16 = getelementptr inbounds i8, ptr %10, i64 %15
  %17 = getelementptr inbounds nuw %struct.GinPageOpaqueData, ptr %16, i32 0, i32 1
  %18 = load i16, ptr %17, align 4
  store i16 %18, ptr %7, align 2
  call void @llvm.lifetime.start.p0(i64 8, ptr %8) #7
  %19 = load i16, ptr %6, align 2
  %20 = zext i16 %19 to i32
  %21 = icmp eq i32 %20, 0
  br i1 %21, label %22, label %33

22:                                               ; preds = %3
  %23 = load ptr, ptr %4, align 8
  %24 = call ptr @PageGetContents(ptr noundef %23)
  %25 = getelementptr inbounds nuw i8, ptr %24, i64 8
  %26 = load i16, ptr %7, align 2
  %27 = zext i16 %26 to i32
  %28 = add i32 %27, 1
  %29 = sub i32 %28, 1
  %30 = sext i32 %29 to i64
  %31 = mul i64 %30, 10
  %32 = getelementptr inbounds nuw i8, ptr %25, i64 %31
  store ptr %32, ptr %8, align 8
  br label %62

33:                                               ; preds = %3
  %34 = load ptr, ptr %4, align 8
  %35 = call ptr @PageGetContents(ptr noundef %34)
  %36 = getelementptr inbounds nuw i8, ptr %35, i64 8
  %37 = load i16, ptr %6, align 2
  %38 = zext i16 %37 to i32
  %39 = sub i32 %38, 1
  %40 = sext i32 %39 to i64
  %41 = mul i64 %40, 10
  %42 = getelementptr inbounds nuw i8, ptr %36, i64 %41
  store ptr %42, ptr %8, align 8
  %43 = load i16, ptr %6, align 2
  %44 = zext i16 %43 to i32
  %45 = load i16, ptr %7, align 2
  %46 = zext i16 %45 to i32
  %47 = add i32 %46, 1
  %48 = icmp ne i32 %44, %47
  br i1 %48, label %49, label %61

49:                                               ; preds = %33
  %50 = load ptr, ptr %8, align 8
  %51 = getelementptr inbounds nuw i8, ptr %50, i64 10
  %52 = load ptr, ptr %8, align 8
  %53 = load i16, ptr %7, align 2
  %54 = zext i16 %53 to i32
  %55 = load i16, ptr %6, align 2
  %56 = zext i16 %55 to i32
  %57 = sub i32 %54, %56
  %58 = add i32 %57, 1
  %59 = sext i32 %58 to i64
  %60 = mul i64 %59, 10
  call void @llvm.memmove.p0.p0.i64(ptr align 1 %51, ptr align 1 %52, i64 %60, i1 false)
  br label %61

61:                                               ; preds = %49, %33
  br label %62

62:                                               ; preds = %61, %22
  %63 = load ptr, ptr %8, align 8
  %64 = load ptr, ptr %5, align 8
  call void @llvm.memcpy.p0.p0.i64(ptr align 1 %63, ptr align 2 %64, i64 10, i1 false)
  %65 = load i16, ptr %7, align 2
  %66 = add i16 %65, 1
  store i16 %66, ptr %7, align 2
  %67 = load i16, ptr %7, align 2
  %68 = load ptr, ptr %4, align 8
  call void @PageValidateSpecialPointer(ptr noundef %68)
  %69 = load ptr, ptr %4, align 8
  %70 = load ptr, ptr %4, align 8
  %71 = getelementptr inbounds nuw %struct.PageHeaderData, ptr %70, i32 0, i32 5
  %72 = load i16, ptr %71, align 4
  %73 = zext i16 %72 to i32
  %74 = sext i32 %73 to i64
  %75 = getelementptr inbounds i8, ptr %69, i64 %74
  %76 = getelementptr inbounds nuw %struct.GinPageOpaqueData, ptr %75, i32 0, i32 1
  store i16 %67, ptr %76, align 4
  %77 = load i16, ptr %7, align 2
  %78 = zext i16 %77 to i64
  %79 = mul i64 %78, 10
  %80 = add i64 %79, 24
  %81 = add i64 %80, 8
  %82 = trunc i64 %81 to i16
  %83 = load ptr, ptr %4, align 8
  %84 = getelementptr inbounds nuw %struct.PageHeaderData, ptr %83, i32 0, i32 3
  store i16 %82, ptr %84, align 4
  call void @llvm.lifetime.end.p0(i64 8, ptr %8) #7
  call void @llvm.lifetime.end.p0(i64 2, ptr %7) #7
  ret void
}

; Function Attrs: inlinehint nounwind uwtable
define internal void @BlockIdSet(ptr noundef %0, i32 noundef %1) #2 {
  %3 = alloca ptr, align 8
  %4 = alloca i32, align 4
  store ptr %0, ptr %3, align 8
  store i32 %1, ptr %4, align 4
  %5 = load i32, ptr %4, align 4
  %6 = lshr i32 %5, 16
  %7 = trunc i32 %6 to i16
  %8 = load ptr, ptr %3, align 8
  %9 = getelementptr inbounds nuw %struct.BlockIdData, ptr %8, i32 0, i32 0
  store i16 %7, ptr %9, align 2
  %10 = load i32, ptr %4, align 4
  %11 = and i32 %10, 65535
  %12 = trunc i32 %11 to i16
  %13 = load ptr, ptr %3, align 8
  %14 = getelementptr inbounds nuw %struct.BlockIdData, ptr %13, i32 0, i32 1
  store i16 %12, ptr %14, align 2
  ret void
}

; Function Attrs: inlinehint nounwind uwtable
define internal ptr @PageGetContents(ptr noundef %0) #2 {
  %2 = alloca ptr, align 8
  store ptr %0, ptr %2, align 8
  %3 = load ptr, ptr %2, align 8
  %4 = getelementptr inbounds nuw i8, ptr %3, i64 24
  ret ptr %4
}

; Function Attrs: nounwind uwtable
define dso_local void @ginDataFillRoot(ptr noundef %0, ptr noundef %1, i32 noundef %2, ptr noundef %3, i32 noundef %4, ptr noundef %5) #0 {
  %7 = alloca ptr, align 8
  %8 = alloca ptr, align 8
  %9 = alloca i32, align 4
  %10 = alloca ptr, align 8
  %11 = alloca i32, align 4
  %12 = alloca ptr, align 8
  %13 = alloca %struct.PostingItem, align 2
  %14 = alloca %struct.PostingItem, align 2
  store ptr %0, ptr %7, align 8
  store ptr %1, ptr %8, align 8
  store i32 %2, ptr %9, align 4
  store ptr %3, ptr %10, align 8
  store i32 %4, ptr %11, align 4
  store ptr %5, ptr %12, align 8
  call void @llvm.lifetime.start.p0(i64 10, ptr %13) #7
  call void @llvm.lifetime.start.p0(i64 10, ptr %14) #7
  %15 = getelementptr inbounds nuw %struct.PostingItem, ptr %13, i32 0, i32 1
  %16 = load ptr, ptr %10, align 8
  %17 = call ptr @PageGetContents(ptr noundef %16)
  call void @llvm.memcpy.p0.p0.i64(ptr align 2 %15, ptr align 2 %17, i64 6, i1 false)
  %18 = getelementptr inbounds nuw %struct.PostingItem, ptr %13, i32 0, i32 0
  %19 = load i32, ptr %9, align 4
  call void @BlockIdSet(ptr noundef %18, i32 noundef %19)
  %20 = load ptr, ptr %8, align 8
  call void @GinDataPageAddPostingItem(ptr noundef %20, ptr noundef %13, i16 noundef zeroext 0)
  %21 = getelementptr inbounds nuw %struct.PostingItem, ptr %14, i32 0, i32 1
  %22 = load ptr, ptr %12, align 8
  %23 = call ptr @PageGetContents(ptr noundef %22)
  call void @llvm.memcpy.p0.p0.i64(ptr align 2 %21, ptr align 2 %23, i64 6, i1 false)
  %24 = getelementptr inbounds nuw %struct.PostingItem, ptr %14, i32 0, i32 0
  %25 = load i32, ptr %11, align 4
  call void @BlockIdSet(ptr noundef %24, i32 noundef %25)
  %26 = load ptr, ptr %8, align 8
  call void @GinDataPageAddPostingItem(ptr noundef %26, ptr noundef %14, i16 noundef zeroext 0)
  call void @llvm.lifetime.end.p0(i64 10, ptr %14) #7
  call void @llvm.lifetime.end.p0(i64 10, ptr %13) #7
  ret void
}