; Function Attrs: mustprogress nofree norecurse nosync nounwind willreturn memory(argmem: readwrite) uwtable
define dso_local void @ginDataFillRoot(ptr readnone captures(none) %0, ptr noundef captures(none) %1, i32 noundef %2, ptr noundef readonly captures(none) %3, i32 noundef %4, ptr noundef readonly captures(none) %5) #4 {
  %.sroa.57 = alloca %struct.ItemPointerData, align 8
  %.sroa.5 = alloca %struct.ItemPointerData, align 8
  call void @llvm.lifetime.start.p0(i64 6, ptr nonnull %.sroa.57)
  call void @llvm.lifetime.start.p0(i64 6, ptr nonnull %.sroa.5)
  %7 = getelementptr inbounds nuw i8, ptr %3, i64 24
  call void @llvm.memcpy.p0.p0.i64(ptr noundef nonnull align 8 dereferenceable(6) %.sroa.57, ptr noundef nonnull align 2 dereferenceable(6) %7, i64 6, i1 false)
  %8 = lshr i32 %2, 16
  %9 = trunc nuw i32 %8 to i16
  %10 = trunc i32 %2 to i16
  %11 = getelementptr inbounds nuw i8, ptr %1, i64 16
  %12 = load i16, ptr %11, align 4
  %13 = zext i16 %12 to i64
  %14 = getelementptr inbounds nuw i8, ptr %1, i64 %13
  %15 = getelementptr inbounds nuw i8, ptr %14, i64 4
  %16 = load i16, ptr %15, align 4
  %17 = getelementptr inbounds nuw i8, ptr %1, i64 32
  %18 = zext i16 %16 to i64
  %19 = mul nuw nsw i64 %18, 10
  %20 = getelementptr inbounds nuw i8, ptr %17, i64 %19
  store i16 %9, ptr %20, align 1
  %.sroa.46.0..sroa_idx = getelementptr inbounds nuw i8, ptr %20, i64 2
  store i16 %10, ptr %.sroa.46.0..sroa_idx, align 1
  %.sroa.57.0..sroa_idx = getelementptr inbounds nuw i8, ptr %20, i64 4
  call void @llvm.memcpy.p0.p0.i64(ptr noundef nonnull align 1 dereferenceable(6) %.sroa.57.0..sroa_idx, ptr noundef nonnull align 8 dereferenceable(6) %.sroa.57, i64 6, i1 false)
  %21 = add i16 %16, 1
  store i16 %21, ptr %15, align 4
  %22 = mul i16 %21, 10
  %23 = add i16 %22, 32
  %24 = getelementptr inbounds nuw i8, ptr %1, i64 12
  store i16 %23, ptr %24, align 4
  %25 = getelementptr inbounds nuw i8, ptr %5, i64 24
  call void @llvm.memcpy.p0.p0.i64(ptr noundef nonnull align 8 dereferenceable(6) %.sroa.5, ptr noundef nonnull align 2 dereferenceable(6) %25, i64 6, i1 false)
  %26 = lshr i32 %4, 16
  %27 = trunc nuw i32 %26 to i16
  %28 = trunc i32 %4 to i16
  %29 = load i16, ptr %11, align 4
  %30 = zext i16 %29 to i64
  %31 = getelementptr inbounds nuw i8, ptr %1, i64 %30
  %32 = getelementptr inbounds nuw i8, ptr %31, i64 4
  %33 = load i16, ptr %32, align 4
  %34 = zext i16 %33 to i64
  %35 = mul nuw nsw i64 %34, 10
  %36 = getelementptr inbounds nuw i8, ptr %17, i64 %35
  store i16 %27, ptr %36, align 1
  %.sroa.4.0..sroa_idx = getelementptr inbounds nuw i8, ptr %36, i64 2
  store i16 %28, ptr %.sroa.4.0..sroa_idx, align 1
  %.sroa.5.0..sroa_idx = getelementptr inbounds nuw i8, ptr %36, i64 4
  call void @llvm.memcpy.p0.p0.i64(ptr noundef nonnull align 1 dereferenceable(6) %.sroa.5.0..sroa_idx, ptr noundef nonnull align 8 dereferenceable(6) %.sroa.5, i64 6, i1 false)
  %37 = add i16 %33, 1
  store i16 %37, ptr %32, align 4
  %38 = mul i16 %37, 10
  %39 = add i16 %38, 32
  store i16 %39, ptr %24, align 4
  call void @llvm.lifetime.end.p0(i64 6, ptr nonnull %.sroa.5)
  call void @llvm.lifetime.end.p0(i64 6, ptr nonnull %.sroa.57)
  ret void
}